
build/main.elf:     file format elf32-littleriscv

Contents of section .text:
 0000 130101ff 23268100 13040101 93078002  ....#&..........
 0010 03a70700 93078002 1377e70f 23a0e700  .........w..#...
 0020 9307c002 13077006 23a0e700 93078002  ......p.#.......
 0030 03a70700 93078002 13670703 23a0e700  .........g..#...
 0040 93078002 03a70700 93078002 1377970f  .............w..
 0050 23a0e700 93078002 03a70700 93078002  #...............
 0060 1377970f 23a0e700 13000000 0324c100  .w..#........$..
 0070 13010101 67800000 130101fe 232e8100  ....g.......#...
 0080 13040102 2326a4fe 13000000 93078002  ....#&..........
 0090 83a70700 93f71700 e39a07fe 93074002  ..............@.
 00a0 0327c4fe 23a0e700 13000000 0324c101  .'..#........$..
 00b0 13010102 67800000 130101fe 232e8100  ....g.......#...
 00c0 13040102 232604fe 13000000 93078002  ....#&..........
 00d0 83a70700 13f78700 93078000 631cf700  ............c...
 00e0 93074002 83a70700 2326f4fe 8327c4fe  ..@.....#&...'..
 00f0 6f004000 13850700 0324c101 13010102  o.@......$......
 0100 67800000 130101fe 232e1100 232c8100  g.......#...#,..
 0110 13040102 232604fe eff09fee 13056003  ....#&........`.
 0120 eff09ff5 eff05ff9 2326a4fe 93070000  ......_.#&......
 0130 13850700 8320c101 03248101 13010102  ..... ...$......
 0140 67800000 00000000 00000000 00000000  g...............
 0150 00000000 00000000 00000000 00000000  ................
 0160 00000000 00000000 00000000 00000000  ................
 0170 00000000 00000000 00000000 00000000  ................
 0180 13000000 6f00800b 13000000 13000000  ....o...........
 0190 13000000 13000000 13000000 13000000  ................
 01a0 13000000 13000000 13000000 13000000  ................
 01b0 13000000 13000000 13000000 13000000  ................
 01c0 6f00800b 00000000 00000000 6f00800a  o...........o...
 01d0 00000000 00000000 00000000 6f008009  ............o...
 01e0 00000000 00000000 00000000 6f008008  ............o...
 01f0 00000000 00000000 00000000 00000000  ................
 0200 6f004007 00000000 00000000 00000000  o.@.............
 0210 00000000 00000000 00000000 00000000  ................
 0220 00000000 00000000 00000000 00000000  ................
 0230 00000000 00000000 00000000 93028000  ................
 0240 73a00230 b7120000 93820280 73a04230  s..0........s.B0
 0250 17110080 130101db 17050000 130585f6  ................
 0260 13051500 73105530 13050000 93050000  ....s.U0........
 0270 eff05fe9 6f000000 6f000000           .._.o...o...    
Contents of section .comment:
 0000 4743433a 20285369 46697665 20474343  GCC: (SiFive GCC
 0010 2d4d6574 616c2031 302e322e 302d3230  -Metal 10.2.0-20
 0020 32302e31 322e3829 2031302e 322e3000  20.12.8) 10.2.0.
Contents of section .riscv.attributes:
 0000 41240000 00726973 63760001 1a000000  A$...riscv......
 0010 04100572 76333269 3270305f 6d327030  ...rv32i2p0_m2p0
 0020 0008010a 0b                          .....           

Disassembly of section .text:

00000000 <uart_init>:
   0:	ff010113          	addi	sp,sp,-16
   4:	00812623          	sw	s0,12(sp)
   8:	01010413          	addi	s0,sp,16
   c:	02800793          	li	a5,40
  10:	0007a703          	lw	a4,0(a5)
  14:	02800793          	li	a5,40
  18:	0fe77713          	andi	a4,a4,254
  1c:	00e7a023          	sw	a4,0(a5)
  20:	02c00793          	li	a5,44
  24:	06700713          	li	a4,103
  28:	00e7a023          	sw	a4,0(a5)
  2c:	02800793          	li	a5,40
  30:	0007a703          	lw	a4,0(a5)
  34:	02800793          	li	a5,40
  38:	03076713          	ori	a4,a4,48
  3c:	00e7a023          	sw	a4,0(a5)
  40:	02800793          	li	a5,40
  44:	0007a703          	lw	a4,0(a5)
  48:	02800793          	li	a5,40
  4c:	0f977713          	andi	a4,a4,249
  50:	00e7a023          	sw	a4,0(a5)
  54:	02800793          	li	a5,40
  58:	0007a703          	lw	a4,0(a5)
  5c:	02800793          	li	a5,40
  60:	0f977713          	andi	a4,a4,249
  64:	00e7a023          	sw	a4,0(a5)
  68:	00000013          	nop
  6c:	00c12403          	lw	s0,12(sp)
  70:	01010113          	addi	sp,sp,16
  74:	00008067          	ret

00000078 <uart_transmit>:
  78:	fe010113          	addi	sp,sp,-32
  7c:	00812e23          	sw	s0,28(sp)
  80:	02010413          	addi	s0,sp,32
  84:	fea42623          	sw	a0,-20(s0)
  88:	00000013          	nop
  8c:	02800793          	li	a5,40
  90:	0007a783          	lw	a5,0(a5)
  94:	0017f793          	andi	a5,a5,1
  98:	fe079ae3          	bnez	a5,8c <uart_transmit+0x14>
  9c:	02400793          	li	a5,36
  a0:	fec42703          	lw	a4,-20(s0)
  a4:	00e7a023          	sw	a4,0(a5)
  a8:	00000013          	nop
  ac:	01c12403          	lw	s0,28(sp)
  b0:	02010113          	addi	sp,sp,32
  b4:	00008067          	ret

000000b8 <uart_receive>:
  b8:	fe010113          	addi	sp,sp,-32
  bc:	00812e23          	sw	s0,28(sp)
  c0:	02010413          	addi	s0,sp,32
  c4:	fe042623          	sw	zero,-20(s0)
  c8:	00000013          	nop
  cc:	02800793          	li	a5,40
  d0:	0007a783          	lw	a5,0(a5)
  d4:	0087f713          	andi	a4,a5,8
  d8:	00800793          	li	a5,8
  dc:	00f71c63          	bne	a4,a5,f4 <__stack_size+0x2c>
  e0:	02400793          	li	a5,36
  e4:	0007a783          	lw	a5,0(a5)
  e8:	fef42623          	sw	a5,-20(s0)
  ec:	fec42783          	lw	a5,-20(s0)
  f0:	0040006f          	j	f4 <__stack_size+0x2c>
  f4:	00078513          	mv	a0,a5
  f8:	01c12403          	lw	s0,28(sp)
  fc:	02010113          	addi	sp,sp,32
 100:	00008067          	ret

00000104 <main>:
 104:	fe010113          	addi	sp,sp,-32
 108:	00112e23          	sw	ra,28(sp)
 10c:	00812c23          	sw	s0,24(sp)
 110:	02010413          	addi	s0,sp,32
 114:	fe042623          	sw	zero,-20(s0)
 118:	ee9ff0ef          	jal	ra,0 <uart_init>
 11c:	03600513          	li	a0,54
 120:	f59ff0ef          	jal	ra,78 <uart_transmit>
 124:	f95ff0ef          	jal	ra,b8 <uart_receive>
 128:	fea42623          	sw	a0,-20(s0)
 12c:	00000793          	li	a5,0
 130:	00078513          	mv	a0,a5
 134:	01c12083          	lw	ra,28(sp)
 138:	01812403          	lw	s0,24(sp)
 13c:	02010113          	addi	sp,sp,32
 140:	00008067          	ret
	...
 180:	00000013          	nop
 184:	0b80006f          	j	23c <reset_handler>
 188:	00000013          	nop
 18c:	00000013          	nop
 190:	00000013          	nop
 194:	00000013          	nop
 198:	00000013          	nop
 19c:	00000013          	nop
 1a0:	00000013          	nop
 1a4:	00000013          	nop
 1a8:	00000013          	nop
 1ac:	00000013          	nop
 1b0:	00000013          	nop
 1b4:	00000013          	nop
 1b8:	00000013          	nop
 1bc:	00000013          	nop

000001c0 <vtable>:
 1c0:	0b80006f 00000000 00000000 0a80006f     o...........o...
	...
 1dc:	0980006f 00000000 00000000 00000000     o...............
 1ec:	0880006f 00000000 00000000 00000000     o...............
 1fc:	00000000 0740006f 00000000 00000000     ....o.@.........
	...

0000023c <reset_handler>:
 23c:	00800293          	li	t0,8
 240:	3002a073          	csrs	mstatus,t0
 244:	000012b7          	lui	t0,0x1
 248:	80028293          	addi	t0,t0,-2048 # 800 <CSR_MEPC+0x4bf>
 24c:	3042a073          	csrs	mie,t0
 250:	80001117          	auipc	sp,0x80001
 254:	db010113          	addi	sp,sp,-592 # 80001000 <_sp+0x0>
 258:	00000517          	auipc	a0,0x0
 25c:	f6850513          	addi	a0,a0,-152 # 1c0 <vtable>
 260:	00150513          	addi	a0,a0,1
 264:	30551073          	csrw	mtvec,a0

00000268 <call_main>:
 268:	00000513          	li	a0,0
 26c:	00000593          	li	a1,0
 270:	e95ff0ef          	jal	ra,104 <main>

00000274 <meip_handler>:
 274:	0000006f          	j	274 <meip_handler>

00000278 <mexc_handler>:
 278:	0000006f          	j	278 <mexc_handler>
