
build/main.elf:     file format elf32-littleriscv

Contents of section .text:
 0000 130101fe 232e1100 232c8100 13040102  ....#...#,......
 0010 93070002 2326f4fe 9307c000 2324f4fe  ....#&......#$..
 0020 232204fe 6f004003 0327c4fe 832784fe  #"..o.@..'...'..
 0030 63dce700 0327c4fe 832784fe b307f740  c....'...'.....@
 0040 2326f4fe 6f004001 032784fe 8327c4fe  #&..o.@..'...'..
 0050 b307f740 2324f4fe 0327c4fe 832784fe  ...@#$...'...'..
 0060 e314f7fc 8327c4fe 2322f4fe 6f000000  .....'..#"..o...
 0070 00000000 00000000 00000000 00000000  ................
 0080 13000000 6f00800b 13000000 13000000  ....o...........
 0090 13000000 13000000 13000000 13000000  ................
 00a0 13000000 13000000 13000000 13000000  ................
 00b0 13000000 13000000 13000000 13000000  ................
 00c0 6f00800b 00000000 00000000 6f00800a  o...........o...
 00d0 00000000 00000000 00000000 6f008009  ............o...
 00e0 00000000 00000000 00000000 6f008008  ............o...
 00f0 00000000 00000000 00000000 00000000  ................
 0100 6f004007 00000000 00000000 00000000  o.@.............
 0110 00000000 00000000 00000000 00000000  ................
 0120 00000000 00000000 00000000 00000000  ................
 0130 00000000 00000000 00000000 93028000  ................
 0140 73a00230 b7120000 93820280 73a04230  s..0........s.B0
 0150 17110080 130101eb 17050000 130585f6  ................
 0160 13051500 73105530 13050000 93050000  ....s.U0........
 0170 eff01fe9 6f000000 6f000000           ....o...o...    
Contents of section .comment:
 0000 4743433a 20283134 2e322e30 2b313929  GCC: (14.2.0+19)
 0010 2031342e 322e3000                     14.2.0.        
Contents of section .riscv.attributes:
 0000 413b0000 00726973 63760001 31000000  A;...riscv..1...
 0010 04100572 76333269 3270315f 6d327030  ...rv32i2p1_m2p0
 0020 5f663270 325f7a69 63737232 70305f7a  _f2p2_zicsr2p0_z
 0030 6d6d756c 31703000 08010a0b           mmul1p0.....    

Disassembly of section .text:

00000000 <main>:
   0:	fe010113          	addi	sp,sp,-32
   4:	00112e23          	sw	ra,28(sp)
   8:	00812c23          	sw	s0,24(sp)
   c:	02010413          	addi	s0,sp,32
  10:	02000793          	li	a5,32
  14:	fef42623          	sw	a5,-20(s0)
  18:	00c00793          	li	a5,12
  1c:	fef42423          	sw	a5,-24(s0)
  20:	fe042223          	sw	zero,-28(s0)
  24:	0340006f          	j	58 <MSTATUS_MIE+0x50>
  28:	fec42703          	lw	a4,-20(s0)
  2c:	fe842783          	lw	a5,-24(s0)
  30:	00e7dc63          	bge	a5,a4,48 <MSTATUS_MIE+0x40>
  34:	fec42703          	lw	a4,-20(s0)
  38:	fe842783          	lw	a5,-24(s0)
  3c:	40f707b3          	sub	a5,a4,a5
  40:	fef42623          	sw	a5,-20(s0)
  44:	0140006f          	j	58 <MSTATUS_MIE+0x50>
  48:	fe842703          	lw	a4,-24(s0)
  4c:	fec42783          	lw	a5,-20(s0)
  50:	40f707b3          	sub	a5,a4,a5
  54:	fef42423          	sw	a5,-24(s0)
  58:	fec42703          	lw	a4,-20(s0)
  5c:	fe842783          	lw	a5,-24(s0)
  60:	fcf714e3          	bne	a4,a5,28 <MSTATUS_MIE+0x20>
  64:	fec42783          	lw	a5,-20(s0)
  68:	fef42223          	sw	a5,-28(s0)
  6c:	0000006f          	j	6c <MSTATUS_MIE+0x64>
	...
  80:	00000013          	.word	0x00000013
  84:	0b80006f          	j	13c <reset_handler>
  88:	00000013          	nop
  8c:	00000013          	nop
  90:	00000013          	nop
  94:	00000013          	nop
  98:	00000013          	nop
  9c:	00000013          	nop
  a0:	00000013          	nop
  a4:	00000013          	nop
  a8:	00000013          	nop
  ac:	00000013          	nop
  b0:	00000013          	nop
  b4:	00000013          	nop
  b8:	00000013          	nop
  bc:	00000013          	nop

000000c0 <vtable>:
  c0:	0b80006f 00000000 00000000 0a80006f     o...........o...
	...
  dc:	0980006f 00000000 00000000 00000000     o...............
  ec:	0880006f 00000000 00000000 00000000     o...............
  fc:	00000000 0740006f 00000000 00000000     ....o.@.........
	...

0000013c <reset_handler>:
 13c:	00800293          	li	t0,8
 140:	3002a073          	csrs	mstatus,t0
 144:	000012b7          	lui	t0,0x1
 148:	80028293          	addi	t0,t0,-2048 # 800 <CSR_MEPC+0x4bf>
 14c:	3042a073          	csrs	mie,t0
 150:	80001117          	auipc	sp,0x80001
 154:	eb010113          	addi	sp,sp,-336 # 80001000 <_sp>
 158:	00000517          	auipc	a0,0x0
 15c:	f6850513          	addi	a0,a0,-152 # c0 <vtable>
 160:	00150513          	addi	a0,a0,1
 164:	30551073          	csrw	mtvec,a0

00000168 <call_main>:
 168:	00000513          	li	a0,0
 16c:	00000593          	li	a1,0
 170:	e91ff0ef          	jal	0 <main>

00000174 <meip_handler>:
 174:	0000006f          	j	174 <meip_handler>

00000178 <mexc_handler>:
 178:	0000006f          	j	178 <mexc_handler>
